; Function Attrs: mustprogress uwtable
define dso_local void @_ZN4base15CustomHistogramC2ERKNSt7__cxx1112basic_stringIcSt11char_traitsIcESaIcEEEPKNS_12BucketRangesE(ptr noundef nonnull align 8 dereferenceable(81) %this, ptr noundef nonnull align 8 dereferenceable(32) %name, ptr noundef %ranges) unnamed_addr #0 align 2 {
entry:
  %0 = load ptr, ptr %ranges, align 8
  %add.ptr.i.i = getelementptr inbounds i8, ptr %0, i64 4
  %1 = load i32, ptr %add.ptr.i.i, align 4
  %_M_finish.i.i = getelementptr inbounds i8, ptr %ranges, i64 8
  %2 = load ptr, ptr %_M_finish.i.i, align 8
  %sub.ptr.lhs.cast.i.i = ptrtoint ptr %2 to i64
  %sub.ptr.rhs.cast.i.i = ptrtoint ptr %0 to i64
  %sub.ptr.sub.i.i = sub i64 %sub.ptr.lhs.cast.i.i, %sub.ptr.rhs.cast.i.i
  %3 = getelementptr i8, ptr %0, i64 %sub.ptr.sub.i.i
  %add.ptr.i.i4 = getelementptr i8, ptr %3, i64 -8
  %4 = load i32, ptr %add.ptr.i.i4, align 4
  tail call void @_ZN4base9HistogramC2ERKNSt7__cxx1112basic_stringIcSt11char_traitsIcESaIcEEEiiPKNS_12BucketRangesE(ptr noundef nonnull align 8 dereferenceable(81) %this, ptr noundef nonnull align 8 dereferenceable(32) %name, i32 noundef %1, i32 noundef %4, ptr noundef nonnull %ranges)
  store ptr getelementptr inbounds ({ [25 x ptr] }, ptr @_ZTVN4base15CustomHistogramE, i64 0, i32 0, i64 2), ptr %this, align 8
  ret void
}